target datalayout = "e-m:e-p270:32:32-p271:32:32-p272:64:64-i64:64-i128:128-f80:128-n8:16:32:64-S128"
target triple = "x86_64-pc-linux-gnu"

%struct.rb_data_type_struct = type { ptr, %struct.anon, ptr, ptr, i64 }
%struct.anon = type { ptr, ptr, ptr, ptr, [1 x ptr] }
%struct.time_object = type { i64, %struct.vtm }
%struct.vtm = type { i64, i64, i64, i64, i64 }
%struct.RBasic = type { i64, i64 }
%struct.RTypedData = type { %struct.RBasic, ptr, i64, ptr }

@.str.1 = private unnamed_addr constant [10 x i8] c"../time.c\00", align 1
@time_data_type = internal constant %struct.rb_data_type_struct { ptr @.str.96, %struct.anon { ptr @time_mark, ptr inttoptr (i64 -1 to ptr), ptr null, ptr null, [1 x ptr] zeroinitializer }, ptr null, ptr null, i64 291 }, align 8

; Function Attrs: inlinehint nounwind sspstrong willreturn memory(none) uwtable
define internal zeroext i1 @RB_IMMEDIATE_P(i64 noundef %0) #5 {
  %2 = alloca i64, align 8
  store i64 %0, ptr %2, align 8, !tbaa !11
  %3 = load i64, ptr %2, align 8, !tbaa !11
  %4 = and i64 %3, 7
  %5 = icmp ne i64 %4, 0
  ret i1 %5
}

; Function Attrs: inlinehint nounwind sspstrong willreturn memory(none) uwtable
define internal zeroext i1 @RB_SPECIAL_CONST_P(i64 noundef %0) #5 {
  %2 = alloca i64, align 8
  store i64 %0, ptr %2, align 8, !tbaa !11
  %3 = load i64, ptr %2, align 8, !tbaa !11
  %4 = icmp eq i64 %3, 0
  br i1 %4, label %8, label %5

5:                                                ; preds = %1
  %6 = load i64, ptr %2, align 8, !tbaa !11
  %7 = call zeroext i1 @RB_IMMEDIATE_P(i64 noundef %6) #24
  br label %8

8:                                                ; preds = %5, %1
  %9 = phi i1 [ true, %1 ], [ %7, %5 ]
  ret i1 %9
}

; Function Attrs: inlinehint nounwind sspstrong uwtable
define internal i64 @rb_obj_written(i64 noundef %0, i64 noundef %1, i64 noundef %2, ptr noundef %3, i32 noundef %4) #4 {
  %6 = alloca i64, align 8
  %7 = alloca i64, align 8
  %8 = alloca i64, align 8
  %9 = alloca ptr, align 8
  %10 = alloca i32, align 4
  store i64 %0, ptr %6, align 8, !tbaa !11
  store i64 %1, ptr %7, align 8, !tbaa !11
  store i64 %2, ptr %8, align 8, !tbaa !11
  store ptr %3, ptr %9, align 8, !tbaa !25
  store i32 %4, ptr %10, align 4, !tbaa !20
  %11 = load i64, ptr %8, align 8, !tbaa !11
  %12 = call zeroext i1 @RB_SPECIAL_CONST_P(i64 noundef %11) #24
  br i1 %12, label %16, label %13

13:                                               ; preds = %5
  %14 = load i64, ptr %6, align 8, !tbaa !11
  %15 = load i64, ptr %8, align 8, !tbaa !11
  call void @rb_gc_writebarrier(i64 noundef %14, i64 noundef %15)
  br label %16

16:                                               ; preds = %13, %5
  %17 = load i64, ptr %6, align 8, !tbaa !11
  ret i64 %17
}

; Function Attrs: inlinehint nounwind sspstrong uwtable
define internal i64 @w2v(i64 noundef %0) #4 {
  %2 = alloca i64, align 8
  store i64 %0, ptr %2, align 8, !tbaa !11
  %3 = load i64, ptr %2, align 8, !tbaa !11
  ret i64 %3
}

; Function Attrs: inlinehint nounwind sspstrong willreturn memory(none) uwtable
define internal zeroext i1 @RB_FIXNUM_P(i64 noundef %0) #5 {
  %2 = alloca i64, align 8
  store i64 %0, ptr %2, align 8, !tbaa !11
  %3 = load i64, ptr %2, align 8, !tbaa !11
  %4 = and i64 %3, 1
  %5 = icmp ne i64 %4, 0
  ret i1 %5
}

; Function Attrs: inlinehint nounwind sspstrong uwtable
define internal zeroext i1 @RTYPEDDATA_EMBEDDED_P(i64 noundef %0) #4 {
  %2 = alloca i64, align 8
  store i64 %0, ptr %2, align 8, !tbaa !11
  %3 = load i64, ptr %2, align 8, !tbaa !11
  %4 = inttoptr i64 %3 to ptr
  %5 = getelementptr inbounds nuw %struct.RTypedData, ptr %4, i32 0, i32 2
  %6 = load i64, ptr %5, align 8, !tbaa !70
  %7 = and i64 %6, 2
  %8 = icmp ne i64 %7, 0
  ret i1 %8
}

; Function Attrs: inlinehint nounwind sspstrong willreturn memory(none) uwtable
define internal i64 @RB_INT2FIX(i64 noundef %0) #5 {
  %2 = alloca i64, align 8
  %3 = alloca i64, align 8
  %4 = alloca i64, align 8
  %5 = alloca i64, align 8
  %6 = alloca i64, align 8
  %7 = alloca i64, align 8
  store i64 %0, ptr %2, align 8, !tbaa !11
  call void @llvm.lifetime.start.p0(i64 8, ptr %3) #22
  %8 = load i64, ptr %2, align 8, !tbaa !11
  store i64 %8, ptr %3, align 8, !tbaa !11
  call void @llvm.lifetime.start.p0(i64 8, ptr %4) #22
  %9 = load i64, ptr %3, align 8, !tbaa !11
  %10 = shl i64 %9, 1
  %11 = add i64 %10, 1
  store i64 %11, ptr %4, align 8, !tbaa !11
  call void @llvm.lifetime.start.p0(i64 8, ptr %5) #22
  %12 = load i64, ptr %4, align 8, !tbaa !11
  store i64 %12, ptr %5, align 8, !tbaa !11
  call void @llvm.lifetime.start.p0(i64 8, ptr %6) #22
  %13 = load i64, ptr %5, align 8, !tbaa !11
  store i64 %13, ptr %6, align 8, !tbaa !11
  call void @llvm.lifetime.start.p0(i64 8, ptr %7) #22
  %14 = load i64, ptr %6, align 8, !tbaa !11
  store i64 %14, ptr %7, align 8, !tbaa !11
  %15 = load i64, ptr %7, align 8, !tbaa !11
  call void @llvm.lifetime.end.p0(i64 8, ptr %7) #22
  call void @llvm.lifetime.end.p0(i64 8, ptr %6) #22
  call void @llvm.lifetime.end.p0(i64 8, ptr %5) #22
  call void @llvm.lifetime.end.p0(i64 8, ptr %4) #22
  call void @llvm.lifetime.end.p0(i64 8, ptr %3) #22
  ret i64 %15
}

; Function Attrs: nounwind sspstrong uwtable
define internal void @time_set_timew(i64 noundef %0, ptr noundef %1, i64 noundef %2) #0 {
  %4 = alloca i64, align 8
  %5 = alloca ptr, align 8
  %6 = alloca i64, align 8
  store i64 %0, ptr %4, align 8, !tbaa !11
  store ptr %1, ptr %5, align 8, !tbaa !18
  store i64 %2, ptr %6, align 8, !tbaa !11
  %7 = load i64, ptr %6, align 8, !tbaa !11
  %8 = load ptr, ptr %5, align 8, !tbaa !18
  %9 = getelementptr inbounds nuw %struct.time_object, ptr %8, i32 0, i32 0
  store i64 %7, ptr %9, align 8, !tbaa !33
  %10 = load i64, ptr %6, align 8, !tbaa !11
  %11 = call zeroext i1 @RB_FIXNUM_P(i64 noundef %10) #24
  br i1 %11, label %17, label %12

12:                                               ; preds = %3
  %13 = load i64, ptr %4, align 8, !tbaa !11
  %14 = load i64, ptr %6, align 8, !tbaa !11
  %15 = call i64 @w2v(i64 noundef %14)
  %16 = call i64 @rb_obj_written(i64 noundef %13, i64 noundef 4, i64 noundef %15, ptr noundef @.str.1, i32 noundef 1814)
  br label %17

17:                                               ; preds = %12, %3
  ret void
}

; Function Attrs: inlinehint nounwind sspstrong uwtable
define internal ptr @RTYPEDDATA_GET_DATA(i64 noundef %0) #4 {
  %2 = alloca i64, align 8
  %3 = alloca i64, align 8
  store i64 %0, ptr %2, align 8, !tbaa !11
  call void @llvm.lifetime.start.p0(i64 8, ptr %3) #22
  store i64 32, ptr %3, align 8, !tbaa !11
  %4 = load i64, ptr %2, align 8, !tbaa !11
  %5 = call zeroext i1 @RTYPEDDATA_EMBEDDED_P(i64 noundef %4)
  br i1 %5, label %6, label %10

6:                                                ; preds = %1
  %7 = load i64, ptr %2, align 8, !tbaa !11
  %8 = inttoptr i64 %7 to ptr
  %9 = getelementptr i8, ptr %8, i64 32
  br label %15

10:                                               ; preds = %1
  %11 = load i64, ptr %2, align 8, !tbaa !11
  %12 = inttoptr i64 %11 to ptr
  %13 = getelementptr inbounds nuw %struct.RTypedData, ptr %12, i32 0, i32 3
  %14 = load ptr, ptr %13, align 8, !tbaa !67
  br label %15

15:                                               ; preds = %10, %6
  %16 = phi ptr [ %9, %6 ], [ %14, %10 ]
  call void @llvm.lifetime.end.p0(i64 8, ptr %3) #22
  ret ptr %16
}

; Function Attrs: nounwind sspstrong uwtable
define internal i64 @time_s_alloc(i64 noundef %0) #0 {
  %2 = alloca i64, align 8
  %3 = alloca i64, align 8
  %4 = alloca ptr, align 8
  %5 = alloca i64, align 8
  %6 = alloca i64, align 8
  store i64 %0, ptr %2, align 8, !tbaa !11
  call void @llvm.lifetime.start.p0(i64 8, ptr %3) #22
  call void @llvm.lifetime.start.p0(i64 8, ptr %4) #22
  call void @llvm.lifetime.start.p0(i64 8, ptr %5) #22
  %7 = load i64, ptr %2, align 8, !tbaa !11
  %8 = call i64 @rb_data_typed_object_zalloc(i64 noundef %7, i64 noundef 48, ptr noundef @time_data_type)
  store i64 %8, ptr %5, align 8, !tbaa !11
  %9 = load i64, ptr %5, align 8, !tbaa !11
  %10 = call ptr @RTYPEDDATA_GET_DATA(i64 noundef %9)
  store ptr %10, ptr %4, align 8, !tbaa !18
  %11 = load i64, ptr %5, align 8, !tbaa !11
  store i64 %11, ptr %6, align 8, !tbaa !11
  call void @llvm.lifetime.end.p0(i64 8, ptr %5) #22
  %12 = load i64, ptr %6, align 8, !tbaa !11
  store i64 %12, ptr %3, align 8, !tbaa !11
  %13 = load ptr, ptr %4, align 8, !tbaa !18
  %14 = getelementptr inbounds nuw %struct.time_object, ptr %13, i32 0, i32 1
  %15 = getelementptr inbounds nuw %struct.vtm, ptr %14, i32 0, i32 4
  %16 = load i64, ptr %15, align 8
  %17 = and i64 %16, -61572651155457
  %18 = or i64 %17, 26388279066624
  store i64 %18, ptr %15, align 8
  %19 = load ptr, ptr %4, align 8, !tbaa !18
  %20 = getelementptr inbounds nuw %struct.time_object, ptr %19, i32 0, i32 1
  %21 = getelementptr inbounds nuw %struct.vtm, ptr %20, i32 0, i32 4
  %22 = load i64, ptr %21, align 8
  %23 = and i64 %22, -70368744177665
  %24 = or i64 %23, 0
  store i64 %24, ptr %21, align 8
  %25 = load i64, ptr %3, align 8, !tbaa !11
  %26 = load ptr, ptr %4, align 8, !tbaa !18
  %27 = call i64 @RB_INT2FIX(i64 noundef 0) #24
  call void @time_set_timew(i64 noundef %25, ptr noundef %26, i64 noundef %27)
  %28 = load ptr, ptr %4, align 8, !tbaa !18
  %29 = getelementptr inbounds nuw %struct.time_object, ptr %28, i32 0, i32 1
  %30 = getelementptr inbounds nuw %struct.vtm, ptr %29, i32 0, i32 3
  store i64 4, ptr %30, align 8, !tbaa !38
  %31 = load i64, ptr %3, align 8, !tbaa !11
  call void @llvm.lifetime.end.p0(i64 8, ptr %4) #22
  call void @llvm.lifetime.end.p0(i64 8, ptr %3) #22
  ret i64 %31
}

; Function Attrs: nounwind sspstrong uwtable
define internal i64 @time_new_timew(i64 noundef %0, i64 noundef %1) #0 {
  %3 = alloca i64, align 8
  %4 = alloca i64, align 8
  %5 = alloca i64, align 8
  %6 = alloca ptr, align 8
  store i64 %0, ptr %3, align 8, !tbaa !11
  store i64 %1, ptr %4, align 8, !tbaa !11
  call void @llvm.lifetime.start.p0(i64 8, ptr %5) #22
  %7 = load i64, ptr %3, align 8, !tbaa !11
  %8 = call i64 @time_s_alloc(i64 noundef %7)
  store i64 %8, ptr %5, align 8, !tbaa !11
  call void @llvm.lifetime.start.p0(i64 8, ptr %6) #22
  %9 = load i64, ptr %5, align 8, !tbaa !11
  %10 = call ptr @RTYPEDDATA_GET_DATA(i64 noundef %9)
  store ptr %10, ptr %6, align 8, !tbaa !18
  %11 = load ptr, ptr %6, align 8, !tbaa !18
  %12 = getelementptr inbounds nuw %struct.time_object, ptr %11, i32 0, i32 1
  %13 = getelementptr inbounds nuw %struct.vtm, ptr %12, i32 0, i32 4
  %14 = load i64, ptr %13, align 8
  %15 = and i64 %14, -61572651155457
  %16 = or i64 %15, 0
  store i64 %16, ptr %13, align 8
  %17 = load i64, ptr %5, align 8, !tbaa !11
  %18 = load ptr, ptr %6, align 8, !tbaa !18
  %19 = load i64, ptr %4, align 8, !tbaa !11
  call void @time_set_timew(i64 noundef %17, ptr noundef %18, i64 noundef %19)
  %20 = load i64, ptr %5, align 8, !tbaa !11
  call void @llvm.lifetime.end.p0(i64 8, ptr %6) #22
  call void @llvm.lifetime.end.p0(i64 8, ptr %5) #22
  ret i64 %20
}

; Function Attrs: nounwind sspstrong uwtable
define internal i64 @time_s_mktime(i32 noundef %0, ptr noundef %1, i64 noundef %2) #0 {
  %4 = alloca i32, align 4
  %5 = alloca ptr, align 8
  %6 = alloca i64, align 8
  %7 = alloca %struct.vtm, align 8
  store i32 %0, ptr %4, align 4, !tbaa !20
  store ptr %1, ptr %5, align 8, !tbaa !16
  store i64 %2, ptr %6, align 8, !tbaa !11
  call void @llvm.lifetime.start.p0(i64 40, ptr %7) #22
  %8 = load i32, ptr %4, align 4, !tbaa !20
  %9 = load ptr, ptr %5, align 8, !tbaa !16
  call void @time_arg(i32 noundef %8, ptr noundef %9, ptr noundef %7)
  %10 = load i64, ptr %6, align 8, !tbaa !11
  %11 = call i64 @timelocalw(ptr noundef %7)
  %12 = call i64 @time_new_timew(i64 noundef %10, i64 noundef %11)
  %13 = call i64 @time_localtime(i64 noundef %12)
  call void @llvm.lifetime.end.p0(i64 40, ptr %7) #22
  ret i64 %13
}